target datalayout = "e-m:e-p270:32:32-p271:32:32-p272:64:64-i64:64-i128:128-f80:128-n8:16:32:64-S128"
target triple = "x86_64-pc-linux-gnu"

%"class.dap::ReaderWriter" = type { %"class.dap::Reader", %"class.dap::Writer" }
%"class.dap::Reader" = type { %"class.dap::Closable" }
%"class.dap::Closable" = type { ptr }
%"class.dap::Writer" = type { %"class.dap::Closable" }
%"class.std::__weak_count" = type { ptr }
%"class.std::__cxx11::basic_string" = type { %"struct.std::__cxx11::basic_string<char>::_Alloc_hider", i64, %union.anon }
%"struct.std::__cxx11::basic_string<char>::_Alloc_hider" = type { ptr }
%union.anon = type { i64, [8 x i8] }
%"class.cmDebugger::cmDebuggerPipeClient_POSIX" = type <{ %"class.dap::ReaderWriter", %"class.std::enable_shared_from_this.11", %"class.std::__cxx11::basic_string", i32, [4 x i8] }>
%"class.std::enable_shared_from_this.11" = type { %"class.std::weak_ptr.12" }
%"class.std::weak_ptr.12" = type { %"class.std::__weak_ptr.13" }
%"class.std::__weak_ptr.13" = type { ptr, %"class.std::__weak_count" }

; Function Attrs: mustprogress nounwind uwtable
define linkonce_odr dso_local void @_ZNSt12__weak_countILN9__gnu_cxx12_Lock_policyE2EEC2Ev(ptr noundef nonnull align 8 dereferenceable(8) %0) unnamed_addr #1 comdat align 2 {
  %2 = alloca ptr, align 8
  store ptr %0, ptr %2, align 8
  %3 = load ptr, ptr %2, align 8
  %4 = getelementptr inbounds %"class.std::__weak_count", ptr %3, i32 0, i32 0
  store ptr null, ptr %4, align 8
  ret void
}

; Function Attrs: mustprogress nounwind uwtable
define linkonce_odr dso_local void @_ZNSt10__weak_ptrIN10cmDebugger26cmDebuggerPipeClient_POSIXELN9__gnu_cxx12_Lock_policyE2EEC2Ev(ptr noundef nonnull align 8 dereferenceable(16) %0) unnamed_addr #1 comdat align 2 {
  %2 = alloca ptr, align 8
  store ptr %0, ptr %2, align 8
  %3 = load ptr, ptr %2, align 8
  %4 = getelementptr inbounds %"class.std::__weak_ptr.13", ptr %3, i32 0, i32 0
  store ptr null, ptr %4, align 8
  %5 = getelementptr inbounds %"class.std::__weak_ptr.13", ptr %3, i32 0, i32 1
  call void @_ZNSt12__weak_countILN9__gnu_cxx12_Lock_policyE2EEC2Ev(ptr noundef nonnull align 8 dereferenceable(8) %5) #16
  ret void
}

; Function Attrs: mustprogress nounwind uwtable
define linkonce_odr dso_local void @_ZNSt8weak_ptrIN10cmDebugger26cmDebuggerPipeClient_POSIXEEC2Ev(ptr noundef nonnull align 8 dereferenceable(16) %0) unnamed_addr #1 comdat align 2 {
  %2 = alloca ptr, align 8
  store ptr %0, ptr %2, align 8
  %3 = load ptr, ptr %2, align 8
  call void @_ZNSt10__weak_ptrIN10cmDebugger26cmDebuggerPipeClient_POSIXELN9__gnu_cxx12_Lock_policyE2EEC2Ev(ptr noundef nonnull align 8 dereferenceable(16) %3) #16
  ret void
}

; Function Attrs: mustprogress nounwind uwtable
define linkonce_odr dso_local void @_ZN3dap6WriterC2Ev(ptr noundef nonnull align 8 dereferenceable(8) %0, ptr noundef %1) unnamed_addr #1 comdat align 2 {
  %3 = alloca ptr, align 8
  %4 = alloca ptr, align 8
  store ptr %0, ptr %3, align 8
  store ptr %1, ptr %4, align 8
  %5 = load ptr, ptr %3, align 8
  %6 = load ptr, ptr %4, align 8
  %7 = load ptr, ptr %6, align 8
  store ptr %7, ptr %5, align 8
  %8 = getelementptr inbounds ptr, ptr %6, i64 1
  %9 = load ptr, ptr %8, align 8
  %10 = load ptr, ptr %5, align 8
  %11 = getelementptr i8, ptr %10, i64 -48
  %12 = load i64, ptr %11, align 8
  %13 = getelementptr inbounds i8, ptr %5, i64 %12
  store ptr %9, ptr %13, align 8
  ret void
}

; Function Attrs: mustprogress nounwind uwtable
define linkonce_odr dso_local void @_ZN3dap6ReaderC2Ev(ptr noundef nonnull align 8 dereferenceable(8) %0, ptr noundef %1) unnamed_addr #1 comdat align 2 {
  %3 = alloca ptr, align 8
  %4 = alloca ptr, align 8
  store ptr %0, ptr %3, align 8
  store ptr %1, ptr %4, align 8
  %5 = load ptr, ptr %3, align 8
  %6 = load ptr, ptr %4, align 8
  %7 = load ptr, ptr %6, align 8
  store ptr %7, ptr %5, align 8
  %8 = getelementptr inbounds ptr, ptr %6, i64 1
  %9 = load ptr, ptr %8, align 8
  %10 = load ptr, ptr %5, align 8
  %11 = getelementptr i8, ptr %10, i64 -48
  %12 = load i64, ptr %11, align 8
  %13 = getelementptr inbounds i8, ptr %5, i64 %12
  store ptr %9, ptr %13, align 8
  ret void
}

; Function Attrs: mustprogress nounwind uwtable
define linkonce_odr dso_local void @_ZNSt23enable_shared_from_thisIN10cmDebugger26cmDebuggerPipeClient_POSIXEEC2Ev(ptr noundef nonnull align 8 dereferenceable(16) %0) unnamed_addr #1 comdat align 2 {
  %2 = alloca ptr, align 8
  store ptr %0, ptr %2, align 8
  %3 = load ptr, ptr %2, align 8
  %4 = getelementptr inbounds %"class.std::enable_shared_from_this.11", ptr %3, i32 0, i32 0
  call void @_ZNSt8weak_ptrIN10cmDebugger26cmDebuggerPipeClient_POSIXEEC2Ev(ptr noundef nonnull align 8 dereferenceable(16) %4) #16
  ret void
}

; Function Attrs: mustprogress nounwind uwtable
define linkonce_odr dso_local void @_ZN3dap12ReaderWriterC2Ev(ptr noundef nonnull align 8 dereferenceable(16) %0, ptr noundef %1) unnamed_addr #1 comdat align 2 {
  %3 = alloca ptr, align 8
  %4 = alloca ptr, align 8
  store ptr %0, ptr %3, align 8
  store ptr %1, ptr %4, align 8
  %5 = load ptr, ptr %3, align 8
  %6 = load ptr, ptr %4, align 8
  %7 = getelementptr inbounds ptr, ptr %6, i64 1
  call void @_ZN3dap6ReaderC2Ev(ptr noundef nonnull align 8 dereferenceable(8) %5, ptr noundef %7) #16
  %8 = getelementptr inbounds i8, ptr %5, i64 8
  %9 = getelementptr inbounds ptr, ptr %6, i64 3
  call void @_ZN3dap6WriterC2Ev(ptr noundef nonnull align 8 dereferenceable(8) %8, ptr noundef %9) #16
  %10 = load ptr, ptr %6, align 8
  store ptr %10, ptr %5, align 8
  %11 = getelementptr inbounds ptr, ptr %6, i64 5
  %12 = load ptr, ptr %11, align 8
  %13 = load ptr, ptr %5, align 8
  %14 = getelementptr i8, ptr %13, i64 -48
  %15 = load i64, ptr %14, align 8
  %16 = getelementptr inbounds i8, ptr %5, i64 %15
  store ptr %12, ptr %16, align 8
  %17 = getelementptr inbounds ptr, ptr %6, i64 6
  %18 = load ptr, ptr %17, align 8
  %19 = getelementptr inbounds i8, ptr %5, i64 8
  store ptr %18, ptr %19, align 8
  ret void
}

; Function Attrs: mustprogress nounwind uwtable
define dso_local void @_ZN10cmDebugger26cmDebuggerPipeClient_POSIXC2ENSt7__cxx1112basic_stringIcSt11char_traitsIcESaIcEEE(ptr noundef nonnull align 8 dereferenceable(68) %0, ptr noundef %1, ptr noundef %2) unnamed_addr #1 align 2 {
  %4 = alloca ptr, align 8
  %5 = alloca ptr, align 8
  %6 = alloca ptr, align 8
  store ptr %0, ptr %4, align 8
  store ptr %1, ptr %5, align 8
  store ptr %2, ptr %6, align 8
  %7 = load ptr, ptr %4, align 8
  %8 = load ptr, ptr %5, align 8
  %9 = getelementptr inbounds ptr, ptr %8, i64 1
  call void @_ZN3dap12ReaderWriterC2Ev(ptr noundef nonnull align 8 dereferenceable(16) %7, ptr noundef %9) #16
  %10 = getelementptr inbounds i8, ptr %7, i64 16
  call void @_ZNSt23enable_shared_from_thisIN10cmDebugger26cmDebuggerPipeClient_POSIXEEC2Ev(ptr noundef nonnull align 8 dereferenceable(16) %10) #16
  %11 = load ptr, ptr %8, align 8
  store ptr %11, ptr %7, align 8
  %12 = getelementptr inbounds ptr, ptr %8, i64 8
  %13 = load ptr, ptr %12, align 8
  %14 = load ptr, ptr %7, align 8
  %15 = getelementptr i8, ptr %14, i64 -48
  %16 = load i64, ptr %15, align 8
  %17 = getelementptr inbounds i8, ptr %7, i64 %16
  store ptr %13, ptr %17, align 8
  %18 = getelementptr inbounds ptr, ptr %8, i64 9
  %19 = load ptr, ptr %18, align 8
  %20 = getelementptr inbounds i8, ptr %7, i64 8
  store ptr %19, ptr %20, align 8
  %21 = getelementptr inbounds %"class.cmDebugger::cmDebuggerPipeClient_POSIX", ptr %7, i32 0, i32 2
  call void @_ZNSt7__cxx1112basic_stringIcSt11char_traitsIcESaIcEEC1EOS4_(ptr noundef nonnull align 8 dereferenceable(32) %21, ptr noundef nonnull align 8 dereferenceable(32) %2) #16
  %22 = getelementptr inbounds %"class.cmDebugger::cmDebuggerPipeClient_POSIX", ptr %7, i32 0, i32 3
  store i32 -1, ptr %22, align 8
  ret void
}