; Function Attrs: mustprogress nounwind uwtable
define dso_local void @_ZN10cmDebugger26cmDebuggerPipeClient_POSIXC2ENSt7__cxx1112basic_stringIcSt11char_traitsIcESaIcEEE(ptr noundef nonnull align 8 dereferenceable(68) %0, ptr nocapture noundef readonly %1, ptr noundef nonnull %2) unnamed_addr #2 align 2 {
  %4 = getelementptr inbounds i8, ptr %1, i64 8
  %5 = getelementptr inbounds i8, ptr %1, i64 16
  %6 = load ptr, ptr %5, align 8
  store ptr %6, ptr %0, align 8
  %7 = getelementptr inbounds i8, ptr %1, i64 24
  %8 = load ptr, ptr %7, align 8
  %9 = getelementptr i8, ptr %6, i64 -48
  %10 = load i64, ptr %9, align 8
  %11 = getelementptr inbounds i8, ptr %0, i64 %10
  store ptr %8, ptr %11, align 8
  %12 = getelementptr inbounds i8, ptr %0, i64 8
  %13 = getelementptr inbounds i8, ptr %1, i64 32
  %14 = load ptr, ptr %13, align 8
  store ptr %14, ptr %12, align 8
  %15 = getelementptr inbounds i8, ptr %1, i64 40
  %16 = load ptr, ptr %15, align 8
  %17 = getelementptr i8, ptr %14, i64 -48
  %18 = load i64, ptr %17, align 8
  %19 = getelementptr inbounds i8, ptr %12, i64 %18
  store ptr %16, ptr %19, align 8
  %20 = load ptr, ptr %4, align 8
  store ptr %20, ptr %0, align 8
  %21 = getelementptr inbounds i8, ptr %1, i64 48
  %22 = load ptr, ptr %21, align 8
  %23 = getelementptr i8, ptr %20, i64 -48
  %24 = load i64, ptr %23, align 8
  %25 = getelementptr inbounds i8, ptr %0, i64 %24
  store ptr %22, ptr %25, align 8
  %26 = getelementptr inbounds i8, ptr %1, i64 56
  %27 = load ptr, ptr %26, align 8
  store ptr %27, ptr %12, align 8
  %28 = getelementptr inbounds i8, ptr %0, i64 16
  tail call void @llvm.memset.p0.i64(ptr noundef nonnull align 8 dereferenceable(16) %28, i8 0, i64 16, i1 false)
  %29 = load ptr, ptr %1, align 8
  store ptr %29, ptr %0, align 8
  %30 = getelementptr inbounds i8, ptr %1, i64 64
  %31 = load ptr, ptr %30, align 8
  %32 = getelementptr i8, ptr %29, i64 -48
  %33 = load i64, ptr %32, align 8
  %34 = getelementptr inbounds i8, ptr %0, i64 %33
  store ptr %31, ptr %34, align 8
  %35 = getelementptr inbounds i8, ptr %1, i64 72
  %36 = load ptr, ptr %35, align 8
  store ptr %36, ptr %12, align 8
  %37 = getelementptr inbounds i8, ptr %0, i64 32
  tail call void @_ZNSt7__cxx1112basic_stringIcSt11char_traitsIcESaIcEEC1EOS4_(ptr noundef nonnull align 8 dereferenceable(32) %37, ptr noundef nonnull align 8 dereferenceable(32) %2) #25
  %38 = getelementptr inbounds i8, ptr %0, i64 64
  store i32 -1, ptr %38, align 8
  ret void
}